target datalayout = "e-m:e-p270:32:32-p271:32:32-p272:64:64-i64:64-i128:128-f80:128-n8:16:32:64-S128"
target triple = "x86_64-pc-linux-gnu"

%struct.Amap_Man_t_ = type { ptr, ptr, float, float, i32, i32, ptr, ptr, ptr, ptr, ptr, ptr, ptr, ptr, [7 x i32], i32, i32, i32, ptr, ptr, ptr, ptr, ptr, ptr, ptr, ptr, i32, i32, i32, i32 }
%struct.Amap_Obj_t_ = type { i64, i32, i32, i32, i32, [3 x i32], %union.anon, float, [2 x i32], %struct.Amap_Mat_t_ }
%union.anon = type { ptr }
%struct.Amap_Mat_t_ = type { ptr, ptr, float, float, float }
%struct.Vec_Ptr_t_ = type { i32, i32, ptr }
%struct.Amap_Par_t_ = type { i32, i32, i32, i32, i32, i32, float, float, i32 }

; Function Attrs: inlinehint nounwind uwtable
define internal ptr @Vec_PtrEntry(ptr noundef %0, i32 noundef %1) #4 {
  %3 = alloca ptr, align 8
  %4 = alloca i32, align 4
  store ptr %0, ptr %3, align 8, !tbaa !28
  store i32 %1, ptr %4, align 4, !tbaa !10
  %5 = load ptr, ptr %3, align 8, !tbaa !28
  %6 = getelementptr inbounds nuw %struct.Vec_Ptr_t_, ptr %5, i32 0, i32 2
  %7 = load ptr, ptr %6, align 8, !tbaa !31
  %8 = load i32, ptr %4, align 4, !tbaa !10
  %9 = sext i32 %8 to i64
  %10 = getelementptr inbounds ptr, ptr %7, i64 %9
  %11 = load ptr, ptr %10, align 8, !tbaa !32
  ret ptr %11
}

; Function Attrs: inlinehint nounwind uwtable
define internal i32 @Vec_PtrSize(ptr noundef %0) #4 {
  %2 = alloca ptr, align 8
  store ptr %0, ptr %2, align 8, !tbaa !28
  %3 = load ptr, ptr %2, align 8, !tbaa !28
  %4 = getelementptr inbounds nuw %struct.Vec_Ptr_t_, ptr %3, i32 0, i32 1
  %5 = load i32, ptr %4, align 4, !tbaa !29
  ret i32 %5
}

; Function Attrs: nounwind uwtable
define void @Amap_ManCleanData(ptr noundef %0) #0 {
  %2 = alloca ptr, align 8
  %3 = alloca ptr, align 8
  %4 = alloca i32, align 4
  store ptr %0, ptr %2, align 8, !tbaa !3
  call void @llvm.lifetime.start.p0(i64 8, ptr %3) #12
  call void @llvm.lifetime.start.p0(i64 4, ptr %4) #12
  store i32 0, ptr %4, align 4, !tbaa !10
  br label %5

5:                                                ; preds = %28, %1
  %6 = load i32, ptr %4, align 4, !tbaa !10
  %7 = load ptr, ptr %2, align 8, !tbaa !3
  %8 = getelementptr inbounds nuw %struct.Amap_Man_t_, ptr %7, i32 0, i32 8
  %9 = load ptr, ptr %8, align 8, !tbaa !24
  %10 = call i32 @Vec_PtrSize(ptr noundef %9)
  %11 = icmp slt i32 %6, %10
  br i1 %11, label %12, label %18

12:                                               ; preds = %5
  %13 = load ptr, ptr %2, align 8, !tbaa !3
  %14 = getelementptr inbounds nuw %struct.Amap_Man_t_, ptr %13, i32 0, i32 8
  %15 = load ptr, ptr %14, align 8, !tbaa !24
  %16 = load i32, ptr %4, align 4, !tbaa !10
  %17 = call ptr @Vec_PtrEntry(ptr noundef %15, i32 noundef %16)
  store ptr %17, ptr %3, align 8, !tbaa !25
  br label %18

18:                                               ; preds = %12, %5
  %19 = phi i1 [ false, %5 ], [ true, %12 ]
  br i1 %19, label %20, label %31

20:                                               ; preds = %18
  %21 = load ptr, ptr %3, align 8, !tbaa !25
  %22 = icmp eq ptr %21, null
  br i1 %22, label %23, label %24

23:                                               ; preds = %20
  br label %27

24:                                               ; preds = %20
  %25 = load ptr, ptr %3, align 8, !tbaa !25
  %26 = getelementptr inbounds nuw %struct.Amap_Obj_t_, ptr %25, i32 0, i32 6
  store ptr null, ptr %26, align 8, !tbaa !40
  br label %27

27:                                               ; preds = %24, %23
  br label %28

28:                                               ; preds = %27
  %29 = load i32, ptr %4, align 4, !tbaa !10
  %30 = add nsw i32 %29, 1
  store i32 %30, ptr %4, align 4, !tbaa !10
  br label %5, !llvm.loop !41

31:                                               ; preds = %18
  call void @llvm.lifetime.end.p0(i64 4, ptr %4) #12
  call void @llvm.lifetime.end.p0(i64 8, ptr %3) #12
  ret void
}

; Function Attrs: nounwind uwtable
define void @Amap_ManMap(ptr noundef %0) #0 {
  %2 = alloca ptr, align 8
  %3 = alloca i32, align 4
  store ptr %0, ptr %2, align 8, !tbaa !3
  call void @llvm.lifetime.start.p0(i64 4, ptr %3) #12
  %4 = load ptr, ptr %2, align 8, !tbaa !3
  call void @Amap_ManMerge(ptr noundef %4)
  store i32 0, ptr %3, align 4, !tbaa !10
  br label %5

5:                                                ; preds = %18, %1
  %6 = load i32, ptr %3, align 4, !tbaa !10
  %7 = load ptr, ptr %2, align 8, !tbaa !3
  %8 = getelementptr inbounds nuw %struct.Amap_Man_t_, ptr %7, i32 0, i32 0
  %9 = load ptr, ptr %8, align 8, !tbaa !78
  %10 = getelementptr inbounds nuw %struct.Amap_Par_t_, ptr %9, i32 0, i32 0
  %11 = load i32, ptr %10, align 4, !tbaa !98
  %12 = icmp slt i32 %6, %11
  br i1 %12, label %13, label %21

13:                                               ; preds = %5
  %14 = load ptr, ptr %2, align 8, !tbaa !3
  %15 = load i32, ptr %3, align 4, !tbaa !10
  %16 = icmp sgt i32 %15, 0
  %17 = zext i1 %16 to i32
  call void @Amap_ManMatch(ptr noundef %14, i32 noundef 1, i32 noundef %17)
  br label %18

18:                                               ; preds = %13
  %19 = load i32, ptr %3, align 4, !tbaa !10
  %20 = add nsw i32 %19, 1
  store i32 %20, ptr %3, align 4, !tbaa !10
  br label %5, !llvm.loop !99

21:                                               ; preds = %5
  store i32 0, ptr %3, align 4, !tbaa !10
  br label %22

22:                                               ; preds = %44, %21
  %23 = load i32, ptr %3, align 4, !tbaa !10
  %24 = load ptr, ptr %2, align 8, !tbaa !3
  %25 = getelementptr inbounds nuw %struct.Amap_Man_t_, ptr %24, i32 0, i32 0
  %26 = load ptr, ptr %25, align 8, !tbaa !78
  %27 = getelementptr inbounds nuw %struct.Amap_Par_t_, ptr %26, i32 0, i32 1
  %28 = load i32, ptr %27, align 4, !tbaa !100
  %29 = icmp slt i32 %23, %28
  br i1 %29, label %30, label %47

30:                                               ; preds = %22
  %31 = load ptr, ptr %2, align 8, !tbaa !3
  %32 = load ptr, ptr %2, align 8, !tbaa !3
  %33 = getelementptr inbounds nuw %struct.Amap_Man_t_, ptr %32, i32 0, i32 0
  %34 = load ptr, ptr %33, align 8, !tbaa !78
  %35 = getelementptr inbounds nuw %struct.Amap_Par_t_, ptr %34, i32 0, i32 0
  %36 = load i32, ptr %35, align 4, !tbaa !98
  %37 = icmp sgt i32 %36, 0
  br i1 %37, label %41, label %38

38:                                               ; preds = %30
  %39 = load i32, ptr %3, align 4, !tbaa !10
  %40 = icmp sgt i32 %39, 0
  br label %41

41:                                               ; preds = %38, %30
  %42 = phi i1 [ true, %30 ], [ %40, %38 ]
  %43 = zext i1 %42 to i32
  call void @Amap_ManMatch(ptr noundef %31, i32 noundef 0, i32 noundef %43)
  br label %44

44:                                               ; preds = %41
  %45 = load i32, ptr %3, align 4, !tbaa !10
  %46 = add nsw i32 %45, 1
  store i32 %46, ptr %3, align 4, !tbaa !10
  br label %22, !llvm.loop !101

47:                                               ; preds = %22
  %48 = load ptr, ptr %2, align 8, !tbaa !3
  call void @Amap_ManCleanData(ptr noundef %48)
  call void @llvm.lifetime.end.p0(i64 4, ptr %3) #12
  ret void
}