; Function Attrs: nounwind uwtable
define void @Amap_ManMap(ptr noundef %0) local_unnamed_addr #0 {
  tail call void @Amap_ManMerge(ptr noundef %0) #19
  %2 = load ptr, ptr %0, align 8, !tbaa !64
  %3 = load i32, ptr %2, align 4, !tbaa !87
  %4 = icmp sgt i32 %3, 0
  br i1 %4, label %.lr.ph, label %.preheader

.preheader:                                       ; preds = %.lr.ph, %1
  %5 = phi ptr [ %2, %1 ], [ %12, %.lr.ph ]
  %6 = getelementptr inbounds nuw i8, ptr %5, i64 4
  %7 = load i32, ptr %6, align 4, !tbaa !88
  %8 = icmp sgt i32 %7, 0
  br i1 %8, label %.lr.ph14, label %._crit_edge

.lr.ph:                                           ; preds = %1, %.lr.ph
  %.012 = phi i32 [ %11, %.lr.ph ], [ 0, %1 ]
  %9 = icmp ne i32 %.012, 0
  %10 = zext i1 %9 to i32
  tail call void @Amap_ManMatch(ptr noundef nonnull %0, i32 noundef 1, i32 noundef %10)
  %11 = add nuw nsw i32 %.012, 1
  %12 = load ptr, ptr %0, align 8, !tbaa !64
  %13 = load i32, ptr %12, align 4, !tbaa !87
  %14 = icmp slt i32 %11, %13
  br i1 %14, label %.lr.ph, label %.preheader, !llvm.loop !89

.lr.ph14:                                         ; preds = %.preheader, %.lr.ph14
  %15 = phi ptr [ %22, %.lr.ph14 ], [ %5, %.preheader ]
  %.113 = phi i32 [ %21, %.lr.ph14 ], [ 0, %.preheader ]
  %16 = load i32, ptr %15, align 4, !tbaa !87
  %17 = icmp sgt i32 %16, 0
  %18 = icmp ne i32 %.113, 0
  %19 = or i1 %18, %17
  %20 = zext i1 %19 to i32
  tail call void @Amap_ManMatch(ptr noundef nonnull %0, i32 noundef 0, i32 noundef %20)
  %21 = add nuw nsw i32 %.113, 1
  %22 = load ptr, ptr %0, align 8, !tbaa !64
  %23 = getelementptr inbounds nuw i8, ptr %22, i64 4
  %24 = load i32, ptr %23, align 4, !tbaa !88
  %25 = icmp slt i32 %21, %24
  br i1 %25, label %.lr.ph14, label %._crit_edge, !llvm.loop !90

._crit_edge:                                      ; preds = %.lr.ph14, %.preheader
  %26 = getelementptr inbounds nuw i8, ptr %0, i64 48
  %27 = load ptr, ptr %26, align 8, !tbaa !20
  %28 = getelementptr i8, ptr %27, i64 4
  %.val8.i = load i32, ptr %28, align 4, !tbaa !21
  %29 = icmp sgt i32 %.val8.i, 0
  br i1 %29, label %.lr.ph.i, label %Amap_ManCleanData.exit

.lr.ph.i:                                         ; preds = %._crit_edge, %37
  %30 = phi ptr [ %38, %37 ], [ %27, %._crit_edge ]
  %indvars.iv.i = phi i64 [ %indvars.iv.next.i, %37 ], [ 0, %._crit_edge ]
  %31 = getelementptr i8, ptr %30, i64 8
  %.val7.i = load ptr, ptr %31, align 8, !tbaa !23
  %32 = getelementptr inbounds nuw ptr, ptr %.val7.i, i64 %indvars.iv.i
  %33 = load ptr, ptr %32, align 8, !tbaa !24
  %34 = icmp eq ptr %33, null
  br i1 %34, label %37, label %35

35:                                               ; preds = %.lr.ph.i
  %36 = getelementptr inbounds nuw i8, ptr %33, i64 40
  store ptr null, ptr %36, align 8, !tbaa !34
  %.pre.i = load ptr, ptr %26, align 8, !tbaa !20
  br label %37

37:                                               ; preds = %35, %.lr.ph.i
  %38 = phi ptr [ %.pre.i, %35 ], [ %30, %.lr.ph.i ]
  %indvars.iv.next.i = add nuw nsw i64 %indvars.iv.i, 1
  %39 = getelementptr i8, ptr %38, i64 4
  %.val.i = load i32, ptr %39, align 4, !tbaa !21
  %40 = sext i32 %.val.i to i64
  %41 = icmp slt i64 %indvars.iv.next.i, %40
  br i1 %41, label %.lr.ph.i, label %Amap_ManCleanData.exit, !llvm.loop !35

Amap_ManCleanData.exit:                           ; preds = %37, %._crit_edge
  ret void
}